; Function Attrs: nounwind uwtable
define internal range(i32 0, 2) i32 @test_ec_dup_keygen_operation() #0 {
  %1 = alloca ptr, align 8
  call void @llvm.lifetime.start.p0(i64 8, ptr nonnull %1) #6
  store ptr null, ptr %1, align 8, !tbaa !15
  %2 = tail call ptr @EVP_PKEY_CTX_new_id(i32 noundef 408, ptr noundef null) #6
  %3 = tail call i32 @test_ptr(ptr noundef nonnull @.str, i32 noundef 1819, ptr noundef nonnull @.str.286, ptr noundef %2) #6
  %.not = icmp eq i32 %3, 0
  br i1 %.not, label %26, label %4

4:                                                ; preds = %0
  %5 = tail call i32 @EVP_PKEY_paramgen_init(ptr noundef %2) #6
  %6 = tail call i32 @test_int_gt(ptr noundef nonnull @.str, i32 noundef 1820, ptr noundef nonnull @.str.287, ptr noundef nonnull @.str.66, i32 noundef %5, i32 noundef 0) #6
  %.not13 = icmp eq i32 %6, 0
  br i1 %.not13, label %26, label %7

7:                                                ; preds = %4
  %8 = tail call i32 @EVP_PKEY_CTX_set_ec_paramgen_curve_nid(ptr noundef %2, i32 noundef 415) #6
  %9 = tail call i32 @test_int_gt(ptr noundef nonnull @.str, i32 noundef 1822, ptr noundef nonnull @.str.288, ptr noundef nonnull @.str.66, i32 noundef %8, i32 noundef 0) #6
  %.not14 = icmp eq i32 %9, 0
  br i1 %.not14, label %26, label %10

10:                                               ; preds = %7
  %11 = call i32 @EVP_PKEY_paramgen(ptr noundef %2, ptr noundef nonnull %1) #6
  %12 = call i32 @test_int_gt(ptr noundef nonnull @.str, i32 noundef 1823, ptr noundef nonnull @.str.289, ptr noundef nonnull @.str.66, i32 noundef %11, i32 noundef 0) #6
  %.not15 = icmp eq i32 %12, 0
  br i1 %.not15, label %26, label %13

13:                                               ; preds = %10
  %14 = load ptr, ptr %1, align 8, !tbaa !15
  %15 = call i32 @test_ptr(ptr noundef nonnull @.str, i32 noundef 1824, ptr noundef nonnull @.str.290, ptr noundef %14) #6
  %.not16 = icmp eq i32 %15, 0
  br i1 %.not16, label %26, label %16

16:                                               ; preds = %13
  call void @EVP_PKEY_CTX_free(ptr noundef %2) #6
  %17 = load ptr, ptr %1, align 8, !tbaa !15
  %18 = call ptr @EVP_PKEY_CTX_new_from_pkey(ptr noundef null, ptr noundef %17, ptr noundef null) #6
  %19 = call i32 @test_ptr(ptr noundef nonnull @.str, i32 noundef 1830, ptr noundef nonnull @.str.291, ptr noundef %18) #6
  %.not17 = icmp eq i32 %19, 0
  br i1 %.not17, label %26, label %20

20:                                               ; preds = %16
  %21 = call i32 @EVP_PKEY_keygen_init(ptr noundef %18) #6
  %22 = call i32 @test_int_gt(ptr noundef nonnull @.str, i32 noundef 1831, ptr noundef nonnull @.str.295, ptr noundef nonnull @.str.66, i32 noundef %21, i32 noundef 0) #6
  %.not18 = icmp eq i32 %22, 0
  br i1 %.not18, label %26, label %23

23:                                               ; preds = %20
  %24 = call ptr @EVP_PKEY_CTX_dup(ptr noundef %18) #6
  %25 = call i32 @test_ptr_null(ptr noundef nonnull @.str, i32 noundef 1832, ptr noundef nonnull @.str.292, ptr noundef %24) #6
  %.not19 = icmp ne i32 %25, 0
  %spec.select = zext i1 %.not19 to i32
  br label %26

26:                                               ; preds = %23, %16, %20, %0, %4, %7, %10, %13
  %.012 = phi ptr [ null, %20 ], [ null, %16 ], [ %2, %13 ], [ %2, %10 ], [ %2, %7 ], [ %2, %4 ], [ %2, %0 ], [ null, %23 ]
  %.011 = phi ptr [ %18, %20 ], [ %18, %16 ], [ null, %13 ], [ null, %10 ], [ null, %7 ], [ null, %4 ], [ null, %0 ], [ %18, %23 ]
  %.010 = phi ptr [ null, %20 ], [ null, %16 ], [ null, %13 ], [ null, %10 ], [ null, %7 ], [ null, %4 ], [ null, %0 ], [ %24, %23 ]
  %.0 = phi i32 [ 0, %20 ], [ 0, %16 ], [ 0, %13 ], [ 0, %10 ], [ 0, %7 ], [ 0, %4 ], [ 0, %0 ], [ %spec.select, %23 ]
  call void @EVP_PKEY_free(ptr noundef null) #6
  %27 = load ptr, ptr %1, align 8, !tbaa !15
  call void @EVP_PKEY_free(ptr noundef %27) #6
  call void @EVP_PKEY_CTX_free(ptr noundef %.011) #6
  call void @EVP_PKEY_CTX_free(ptr noundef %.010) #6
  call void @EVP_PKEY_CTX_free(ptr noundef %.012) #6
  call void @llvm.lifetime.end.p0(i64 8, ptr nonnull %1) #6
  ret i32 %.0
}